; Function Attrs: nounwind uwtable
define i32 @Pdr_ManCountVariables(ptr noundef readonly captures(none) %0, i32 noundef %1) local_unnamed_addr #0 {
  %3 = getelementptr inbounds nuw i8, ptr %0, i64 288
  %4 = load ptr, ptr %3, align 8
  %5 = icmp eq ptr %4, null
  br i1 %5, label %6, label %8

6:                                                ; preds = %2
  %7 = tail call ptr @Pdr_ManCollectCubes(ptr noundef nonnull %0, i32 noundef %1)
  br label %24

8:                                                ; preds = %2
  %9 = tail call noalias dereferenceable_or_null(16) ptr @malloc(i64 noundef 16) #20
  %10 = getelementptr inbounds nuw i8, ptr %4, i64 4
  %11 = load i32, ptr %10, align 4
  %12 = getelementptr inbounds nuw i8, ptr %9, i64 4
  store i32 %11, ptr %12, align 4
  %13 = load i32, ptr %4, align 8
  store i32 %13, ptr %9, align 8
  %.not.i = icmp eq i32 %13, 0
  br i1 %.not.i, label %Vec_PtrDup.exit, label %14

14:                                               ; preds = %8
  %15 = sext i32 %13 to i64
  %16 = shl nsw i64 %15, 3
  %17 = tail call noalias ptr @malloc(i64 noundef %16) #20
  br label %Vec_PtrDup.exit

Vec_PtrDup.exit:                                  ; preds = %8, %14
  %18 = phi ptr [ %17, %14 ], [ null, %8 ]
  %19 = getelementptr inbounds nuw i8, ptr %9, i64 8
  store ptr %18, ptr %19, align 8
  %20 = getelementptr inbounds nuw i8, ptr %4, i64 8
  %21 = load ptr, ptr %20, align 8
  %22 = sext i32 %11 to i64
  %23 = shl nsw i64 %22, 3
  tail call void @llvm.memcpy.p0.p0.i64(ptr align 8 %18, ptr align 8 %21, i64 %23, i1 false)
  br label %24

24:                                               ; preds = %Vec_PtrDup.exit, %6
  %.012 = phi ptr [ %7, %6 ], [ %9, %Vec_PtrDup.exit ]
  %25 = getelementptr inbounds nuw i8, ptr %0, i64 8
  %26 = load ptr, ptr %25, align 8
  %27 = getelementptr i8, ptr %26, i64 104
  %.val14.i = load i32, ptr %27, align 8
  %28 = add i32 %.val14.i, -1
  %or.cond.i.i.i = icmp ult i32 %28, 15
  %spec.store.select.i.i.i = select i1 %or.cond.i.i.i, i32 16, i32 %.val14.i
  %.not.i.i.i = icmp eq i32 %spec.store.select.i.i.i, 0
  br i1 %.not.i.i.i, label %Vec_IntStart.exit.i, label %Vec_IntAlloc.exit.i.i

Vec_IntAlloc.exit.i.i:                            ; preds = %24
  %29 = sext i32 %spec.store.select.i.i.i to i64
  %30 = shl nsw i64 %29, 2
  %31 = tail call noalias ptr @malloc(i64 noundef %30) #20
  %.not.i.i = icmp eq ptr %31, null
  br i1 %.not.i.i, label %Vec_IntStart.exit.i, label %32

32:                                               ; preds = %Vec_IntAlloc.exit.i.i
  %33 = sext i32 %.val14.i to i64
  %34 = shl nsw i64 %33, 2
  tail call void @llvm.memset.p0.i64(ptr nonnull align 4 %31, i8 0, i64 %34, i1 false)
  br label %Vec_IntStart.exit.i

Vec_IntStart.exit.i:                              ; preds = %24, %32, %Vec_IntAlloc.exit.i.i
  %35 = phi ptr [ null, %Vec_IntAlloc.exit.i.i ], [ %31, %32 ], [ null, %24 ]
  %36 = getelementptr i8, ptr %.012, i64 4
  %.val18.i = load i32, ptr %36, align 4
  %37 = icmp sgt i32 %.val18.i, 0
  br i1 %37, label %.lr.ph20.i, label %Pdr_ManCountFlops.exit

.lr.ph20.i:                                       ; preds = %Vec_IntStart.exit.i
  %38 = getelementptr i8, ptr %.012, i64 8
  %.val15.i = load ptr, ptr %38, align 8
  %39 = zext nneg i32 %.val18.i to i64
  br label %40

40:                                               ; preds = %.loopexit.i, %.lr.ph20.i
  %indvars.iv22.i = phi i64 [ 0, %.lr.ph20.i ], [ %indvars.iv.next23.i, %.loopexit.i ]
  %41 = getelementptr inbounds nuw ptr, ptr %.val15.i, i64 %indvars.iv22.i
  %42 = load ptr, ptr %41, align 8
  %43 = getelementptr inbounds nuw i8, ptr %42, i64 8
  %44 = load i32, ptr %43, align 8
  %45 = icmp eq i32 %44, -1
  br i1 %45, label %.loopexit.i, label %.preheader.i

.preheader.i:                                     ; preds = %40
  %46 = getelementptr inbounds nuw i8, ptr %42, i64 16
  %47 = load i32, ptr %46, align 8
  %48 = icmp sgt i32 %47, 0
  br i1 %48, label %.lr.ph.i, label %.loopexit.i

.lr.ph.i:                                         ; preds = %.preheader.i
  %49 = getelementptr inbounds nuw i8, ptr %42, i64 20
  br label %50

50:                                               ; preds = %50, %.lr.ph.i
  %indvars.iv.i = phi i64 [ 0, %.lr.ph.i ], [ %indvars.iv.next.i, %50 ]
  %51 = getelementptr inbounds nuw [0 x i32], ptr %49, i64 0, i64 %indvars.iv.i
  %52 = load i32, ptr %51, align 4
  %53 = ashr i32 %52, 1
  %54 = sext i32 %53 to i64
  %55 = getelementptr inbounds i32, ptr %35, i64 %54
  %56 = load i32, ptr %55, align 4
  %57 = add nsw i32 %56, 1
  store i32 %57, ptr %55, align 4
  %indvars.iv.next.i = add nuw nsw i64 %indvars.iv.i, 1
  %58 = load i32, ptr %46, align 8
  %59 = sext i32 %58 to i64
  %60 = icmp slt i64 %indvars.iv.next.i, %59
  br i1 %60, label %50, label %.loopexit.i, !llvm.loop !10

.loopexit.i:                                      ; preds = %50, %.preheader.i, %40
  %indvars.iv.next23.i = add nuw nsw i64 %indvars.iv22.i, 1
  %exitcond.not = icmp eq i64 %indvars.iv.next23.i, %39
  br i1 %exitcond.not, label %Pdr_ManCountFlops.exit, label %40, !llvm.loop !11

Pdr_ManCountFlops.exit:                           ; preds = %.loopexit.i, %Vec_IntStart.exit.i
  %61 = icmp sgt i32 %.val14.i, 0
  br i1 %61, label %.lr.ph, label %.critedge

.lr.ph:                                           ; preds = %Pdr_ManCountFlops.exit
  %wide.trip.count = zext nneg i32 %.val14.i to i64
  br label %62

62:                                               ; preds = %.lr.ph, %62
  %indvars.iv = phi i64 [ 0, %.lr.ph ], [ %indvars.iv.next, %62 ]
  %.022 = phi i32 [ 0, %.lr.ph ], [ %67, %62 ]
  %63 = getelementptr inbounds nuw i32, ptr %35, i64 %indvars.iv
  %64 = load i32, ptr %63, align 4
  %65 = icmp sgt i32 %64, 0
  %66 = zext i1 %65 to i32
  %67 = add nuw nsw i32 %.022, %66
  %indvars.iv.next = add nuw nsw i64 %indvars.iv, 1
  %exitcond24.not = icmp eq i64 %indvars.iv.next, %wide.trip.count
  br i1 %exitcond24.not, label %.critedge.thread, label %62, !llvm.loop !15

.critedge:                                        ; preds = %Pdr_ManCountFlops.exit
  %.not.i16 = icmp eq ptr %35, null
  br i1 %.not.i16, label %Vec_IntFreeP.exit, label %.critedge.thread

.critedge.thread:                                 ; preds = %62, %.critedge
  %.0.lcssa28 = phi i32 [ 0, %.critedge ], [ %67, %62 ]
  tail call void @free(ptr noundef nonnull %35) #18
  br label %Vec_IntFreeP.exit

Vec_IntFreeP.exit:                                ; preds = %.critedge, %.critedge.thread
  %.0.lcssa29 = phi i32 [ 0, %.critedge ], [ %.0.lcssa28, %.critedge.thread ]
  %68 = getelementptr inbounds nuw i8, ptr %.012, i64 8
  %69 = load ptr, ptr %68, align 8
  %.not.i17 = icmp eq ptr %69, null
  br i1 %.not.i17, label %Vec_PtrFree.exit, label %70

70:                                               ; preds = %Vec_IntFreeP.exit
  tail call void @free(ptr noundef nonnull %69) #18
  br label %Vec_PtrFree.exit

Vec_PtrFree.exit:                                 ; preds = %Vec_IntFreeP.exit, %70
  tail call void @free(ptr noundef nonnull %.012) #18
  ret i32 %.0.lcssa29
}